; Listing generated by Microsoft (R) Optimizing Compiler Version 19.22.27905.0 

	TITLE	E:\C++反汇编解密第二版\book\C++反汇编解密第二版\src\07\7-3\7_3.cpp
	.686P
	.XMM
	include listing.inc
	.model	flat

INCLUDELIB LIBCMT
INCLUDELIB OLDNAMES

CONST	SEGMENT
$SG5549	DB	'%d', 0aH, 00H
CONST	ENDS
PUBLIC	___local_stdio_printf_options
PUBLIC	__vfprintf_l
PUBLIC	_printf
PUBLIC	?showStatic@@YAXH@Z				; showStatic
PUBLIC	_main
PUBLIC	?_OptionsStorage@?1??__local_stdio_printf_options@@9@4_KA ; `__local_stdio_printf_options'::`2'::_OptionsStorage
EXTRN	__Init_thread_header:PROC
EXTRN	__Init_thread_footer:PROC
EXTRN	___acrt_iob_func:PROC
EXTRN	___stdio_common_vfprintf:PROC
EXTRN	__Init_thread_epoch:DWORD
EXTRN	__tls_array:DWORD
EXTRN	__tls_index:DWORD
;	COMDAT ?_OptionsStorage@?1??__local_stdio_printf_options@@9@4_KA
_BSS	SEGMENT
?_OptionsStorage@?1??__local_stdio_printf_options@@9@4_KA DQ 01H DUP (?) ; `__local_stdio_printf_options'::`2'::_OptionsStorage
_BSS	ENDS
;	COMDAT ?g_static@?1??showStatic@@YAXH@Z@4HA
_BSS	SEGMENT
?g_static@?1??showStatic@@YAXH@Z@4HA DD 01H DUP (?)	; `showStatic'::`2'::g_static
_BSS	ENDS
;	COMDAT ?$TSS0@?1??showStatic@@YAXH@Z@4HA
_BSS	SEGMENT
?$TSS0@?1??showStatic@@YAXH@Z@4HA DD 01H DUP (?)	; TSS0<`template-parameter-2',howStatic,int, ?? &>
_BSS	ENDS
; Function compile flags: /Odtp
; File E:\C++反汇编解密第二版\book\C++反汇编解密第二版\src\07\7-3\7_3.cpp
_TEXT	SEGMENT
_i$1 = -4						; size = 4
_argc$ = 8						; size = 4
_argv$ = 12						; size = 4
_main	PROC

; 8    : int main(int argc, char* argv[]) {

	push	ebp
	mov	ebp, esp
	push	ecx

; 9    :   for (int i = 0; i < 5; i++) {

	mov	DWORD PTR _i$1[ebp], 0
	jmp	SHORT $LN4@main
$LN2@main:
	mov	eax, DWORD PTR _i$1[ebp]
	add	eax, 1
	mov	DWORD PTR _i$1[ebp], eax
$LN4@main:
	cmp	DWORD PTR _i$1[ebp], 5
	jge	SHORT $LN3@main

; 10   :     showStatic(i); //循环调用显示局部静态变量的函数，每次传入不同值

	mov	ecx, DWORD PTR _i$1[ebp]
	push	ecx
	call	?showStatic@@YAXH@Z			; showStatic
	add	esp, 4

; 11   :   }

	jmp	SHORT $LN2@main
$LN3@main:

; 12   :   return 0;

	xor	eax, eax

; 13   : }

	mov	esp, ebp
	pop	ebp
	ret	0
_main	ENDP
_TEXT	ENDS
; Function compile flags: /Odtp
; File E:\C++反汇编解密第二版\book\C++反汇编解密第二版\src\07\7-3\7_3.cpp
_TEXT	SEGMENT
_n$ = 8							; size = 4
?showStatic@@YAXH@Z PROC				; showStatic

; 3    : void showStatic(int n){

	push	ebp
	mov	ebp, esp

; 4    :   static int g_static = n;	    //定义局部静态变量，赋值为参数

	mov	eax, DWORD PTR __tls_index
	mov	ecx, DWORD PTR fs:__tls_array
	mov	edx, DWORD PTR [ecx+eax*4]
	mov	eax, DWORD PTR ?$TSS0@?1??showStatic@@YAXH@Z@4HA
	cmp	eax, DWORD PTR __Init_thread_epoch[edx]
	jle	SHORT $LN2@showStatic
	push	OFFSET ?$TSS0@?1??showStatic@@YAXH@Z@4HA
	call	__Init_thread_header
	add	esp, 4
	cmp	DWORD PTR ?$TSS0@?1??showStatic@@YAXH@Z@4HA, -1
	jne	SHORT $LN2@showStatic
	mov	ecx, DWORD PTR _n$[ebp]
	mov	DWORD PTR ?g_static@?1??showStatic@@YAXH@Z@4HA, ecx
	push	OFFSET ?$TSS0@?1??showStatic@@YAXH@Z@4HA
	call	__Init_thread_footer
	add	esp, 4
$LN2@showStatic:

; 5    :   printf("%d\n", g_static);        //显示静态变量

	mov	edx, DWORD PTR ?g_static@?1??showStatic@@YAXH@Z@4HA
	push	edx
	push	OFFSET $SG5549
	call	_printf
	add	esp, 8

; 6    : }

	pop	ebp
	ret	0
?showStatic@@YAXH@Z ENDP				; showStatic
_TEXT	ENDS
; Function compile flags: /Odtp
; File C:\Program Files (x86)\Windows Kits\10\include\10.0.18362.0\ucrt\stdio.h
;	COMDAT _printf
_TEXT	SEGMENT
__Result$ = -8						; size = 4
__ArgList$ = -4						; size = 4
__Format$ = 8						; size = 4
_printf	PROC						; COMDAT

; 954  :     {

	push	ebp
	mov	ebp, esp
	sub	esp, 8

; 955  :         int _Result;
; 956  :         va_list _ArgList;
; 957  :         __crt_va_start(_ArgList, _Format);

	lea	eax, DWORD PTR __Format$[ebp+4]
	mov	DWORD PTR __ArgList$[ebp], eax

; 958  :         _Result = _vfprintf_l(stdout, _Format, NULL, _ArgList);

	mov	ecx, DWORD PTR __ArgList$[ebp]
	push	ecx
	push	0
	mov	edx, DWORD PTR __Format$[ebp]
	push	edx
	push	1
	call	___acrt_iob_func
	add	esp, 4
	push	eax
	call	__vfprintf_l
	add	esp, 16					; 00000010H
	mov	DWORD PTR __Result$[ebp], eax

; 959  :         __crt_va_end(_ArgList);

	mov	DWORD PTR __ArgList$[ebp], 0

; 960  :         return _Result;

	mov	eax, DWORD PTR __Result$[ebp]

; 961  :     }

	mov	esp, ebp
	pop	ebp
	ret	0
_printf	ENDP
_TEXT	ENDS
; Function compile flags: /Odtp
; File C:\Program Files (x86)\Windows Kits\10\include\10.0.18362.0\ucrt\stdio.h
;	COMDAT __vfprintf_l
_TEXT	SEGMENT
__Stream$ = 8						; size = 4
__Format$ = 12						; size = 4
__Locale$ = 16						; size = 4
__ArgList$ = 20						; size = 4
__vfprintf_l PROC					; COMDAT

; 642  :     {

	push	ebp
	mov	ebp, esp

; 643  :         return __stdio_common_vfprintf(_CRT_INTERNAL_LOCAL_PRINTF_OPTIONS, _Stream, _Format, _Locale, _ArgList);

	mov	eax, DWORD PTR __ArgList$[ebp]
	push	eax
	mov	ecx, DWORD PTR __Locale$[ebp]
	push	ecx
	mov	edx, DWORD PTR __Format$[ebp]
	push	edx
	mov	eax, DWORD PTR __Stream$[ebp]
	push	eax
	call	___local_stdio_printf_options
	mov	ecx, DWORD PTR [eax+4]
	push	ecx
	mov	edx, DWORD PTR [eax]
	push	edx
	call	___stdio_common_vfprintf
	add	esp, 24					; 00000018H

; 644  :     }

	pop	ebp
	ret	0
__vfprintf_l ENDP
_TEXT	ENDS
; Function compile flags: /Odtp
; File C:\Program Files (x86)\Windows Kits\10\include\10.0.18362.0\ucrt\corecrt_stdio_config.h
;	COMDAT ___local_stdio_printf_options
_TEXT	SEGMENT
___local_stdio_printf_options PROC			; COMDAT

; 86   :     {

	push	ebp
	mov	ebp, esp

; 87   :         static unsigned __int64 _OptionsStorage;
; 88   :         return &_OptionsStorage;

	mov	eax, OFFSET ?_OptionsStorage@?1??__local_stdio_printf_options@@9@4_KA ; `__local_stdio_printf_options'::`2'::_OptionsStorage

; 89   :     }

	pop	ebp
	ret	0
___local_stdio_printf_options ENDP
_TEXT	ENDS
END
